; Function Attrs: nounwind memory(readwrite, argmem: read) uwtable
define internal fastcc range(i32 0, 2) i32 @arkode_butcher_order6f(ptr noundef readonly captures(address_is_null) %0, ptr noundef readonly captures(address_is_null) %1, ptr noundef readonly captures(address_is_null) %2, ptr noundef readonly captures(address_is_null) %3, ptr noundef readonly captures(address_is_null) %4, ptr noundef readonly captures(address_is_null) %5, i32 noundef %6) unnamed_addr #10 {
  %8 = sext i32 %6 to i64
  %9 = tail call noalias ptr @calloc(i64 noundef %8, i64 noundef 8) #16
  %10 = tail call noalias ptr @calloc(i64 noundef %8, i64 noundef 8) #16
  %11 = tail call noalias ptr @calloc(i64 noundef %8, i64 noundef 8) #16
  %12 = icmp eq ptr %2, null
  %13 = icmp eq ptr %3, null
  %or.cond.i = or i1 %12, %13
  %14 = icmp eq ptr %9, null
  %or.cond3.i = or i1 %or.cond.i, %14
  %15 = icmp slt i32 %6, 1
  %or.cond5.i = or i1 %15, %or.cond3.i
  br i1 %or.cond5.i, label %arkode_butcher_mv.exit, label %.preheader.us.preheader.i

.preheader.us.preheader.i:                        ; preds = %7
  %16 = zext nneg i32 %6 to i64
  %17 = shl nuw nsw i64 %16, 3
  br label %.preheader.us.i

.preheader.us.i:                                  ; preds = %._crit_edge.us.i, %.preheader.us.preheader.i
  %indvars.iv40.i = phi i64 [ 0, %.preheader.us.preheader.i ], [ %indvars.iv.next41.i, %._crit_edge.us.i ]
  %18 = getelementptr inbounds nuw ptr, ptr %2, i64 %indvars.iv40.i
  %19 = load ptr, ptr %18, align 8, !tbaa !12
  %20 = getelementptr inbounds nuw double, ptr %9, i64 %indvars.iv40.i
  %.promoted.us.i = load double, ptr %20, align 8, !tbaa !18
  br label %21

21:                                               ; preds = %21, %.preheader.us.i
  %indvars.iv.i = phi i64 [ 0, %.preheader.us.i ], [ %indvars.iv.next.i, %21 ]
  %22 = phi double [ %.promoted.us.i, %.preheader.us.i ], [ %27, %21 ]
  %23 = getelementptr inbounds nuw double, ptr %19, i64 %indvars.iv.i
  %24 = load double, ptr %23, align 8, !tbaa !18
  %25 = getelementptr inbounds nuw double, ptr %3, i64 %indvars.iv.i
  %26 = load double, ptr %25, align 8, !tbaa !18
  %27 = tail call double @llvm.fmuladd.f64(double %24, double %26, double %22)
  %indvars.iv.next.i = add nuw nsw i64 %indvars.iv.i, 1
  %exitcond.not.i = icmp eq i64 %indvars.iv.next.i, %16
  br i1 %exitcond.not.i, label %._crit_edge.us.i, label %21

._crit_edge.us.i:                                 ; preds = %21
  store double %27, ptr %20, align 8, !tbaa !18
  %indvars.iv.next41.i = add nuw nsw i64 %indvars.iv40.i, 1
  %exitcond44.not.i = icmp eq i64 %indvars.iv.next41.i, %16
  br i1 %exitcond44.not.i, label %28, label %.preheader.us.i

arkode_butcher_mv.exit:                           ; preds = %7
  tail call void @free(ptr noundef %9) #17
  tail call void @free(ptr noundef %10) #17
  tail call void @free(ptr noundef %11) #17
  br label %arkode_butcher_dot.exit

28:                                               ; preds = %._crit_edge.us.i
  %29 = icmp eq ptr %1, null
  %30 = icmp eq ptr %10, null
  %or.cond3.i42 = or i1 %29, %30
  br i1 %or.cond3.i42, label %arkode_butcher_mv.exit55, label %.preheader.us.i45

.preheader.us.i45:                                ; preds = %28, %._crit_edge.us.i51
  %indvars.iv40.i46 = phi i64 [ %indvars.iv.next41.i52, %._crit_edge.us.i51 ], [ 0, %28 ]
  %31 = getelementptr inbounds nuw ptr, ptr %1, i64 %indvars.iv40.i46
  %32 = load ptr, ptr %31, align 8, !tbaa !12
  %33 = getelementptr inbounds nuw double, ptr %10, i64 %indvars.iv40.i46
  %.promoted.us.i47 = load double, ptr %33, align 8, !tbaa !18
  br label %34

34:                                               ; preds = %34, %.preheader.us.i45
  %indvars.iv.i48 = phi i64 [ 0, %.preheader.us.i45 ], [ %indvars.iv.next.i49, %34 ]
  %35 = phi double [ %.promoted.us.i47, %.preheader.us.i45 ], [ %40, %34 ]
  %36 = getelementptr inbounds nuw double, ptr %32, i64 %indvars.iv.i48
  %37 = load double, ptr %36, align 8, !tbaa !18
  %38 = getelementptr inbounds nuw double, ptr %9, i64 %indvars.iv.i48
  %39 = load double, ptr %38, align 8, !tbaa !18
  %40 = tail call double @llvm.fmuladd.f64(double %37, double %39, double %35)
  %indvars.iv.next.i49 = add nuw nsw i64 %indvars.iv.i48, 1
  %exitcond.not.i50 = icmp eq i64 %indvars.iv.next.i49, %16
  br i1 %exitcond.not.i50, label %._crit_edge.us.i51, label %34

._crit_edge.us.i51:                               ; preds = %34
  store double %40, ptr %33, align 8, !tbaa !18
  %indvars.iv.next41.i52 = add nuw nsw i64 %indvars.iv40.i46, 1
  %exitcond44.not.i53 = icmp eq i64 %indvars.iv.next41.i52, %16
  br i1 %exitcond44.not.i53, label %41, label %.preheader.us.i45

arkode_butcher_mv.exit55:                         ; preds = %28
  tail call void @free(ptr noundef nonnull %9) #17
  tail call void @free(ptr noundef %10) #17
  tail call void @free(ptr noundef %11) #17
  br label %arkode_butcher_dot.exit

41:                                               ; preds = %._crit_edge.us.i51
  %42 = icmp eq ptr %4, null
  %43 = icmp eq ptr %5, null
  %or.cond.i56 = or i1 %42, %43
  br i1 %or.cond.i56, label %arkode_butcher_mv.exit70, label %.preheader.us.preheader.i59

.preheader.us.preheader.i59:                      ; preds = %41
  tail call void @llvm.memset.p0.i64(ptr nonnull align 8 %9, i8 0, i64 %17, i1 false), !tbaa !18
  br label %.preheader.us.i60

.preheader.us.i60:                                ; preds = %._crit_edge.us.i66, %.preheader.us.preheader.i59
  %indvars.iv40.i61 = phi i64 [ 0, %.preheader.us.preheader.i59 ], [ %indvars.iv.next41.i67, %._crit_edge.us.i66 ]
  %44 = getelementptr inbounds nuw ptr, ptr %4, i64 %indvars.iv40.i61
  %45 = load ptr, ptr %44, align 8, !tbaa !12
  %46 = getelementptr inbounds nuw double, ptr %9, i64 %indvars.iv40.i61
  %.promoted.us.i62 = load double, ptr %46, align 8, !tbaa !18
  br label %47

47:                                               ; preds = %47, %.preheader.us.i60
  %indvars.iv.i63 = phi i64 [ 0, %.preheader.us.i60 ], [ %indvars.iv.next.i64, %47 ]
  %48 = phi double [ %.promoted.us.i62, %.preheader.us.i60 ], [ %53, %47 ]
  %49 = getelementptr inbounds nuw double, ptr %45, i64 %indvars.iv.i63
  %50 = load double, ptr %49, align 8, !tbaa !18
  %51 = getelementptr inbounds nuw double, ptr %5, i64 %indvars.iv.i63
  %52 = load double, ptr %51, align 8, !tbaa !18
  %53 = tail call double @llvm.fmuladd.f64(double %50, double %52, double %48)
  %indvars.iv.next.i64 = add nuw nsw i64 %indvars.iv.i63, 1
  %exitcond.not.i65 = icmp eq i64 %indvars.iv.next.i64, %16
  br i1 %exitcond.not.i65, label %._crit_edge.us.i66, label %47

._crit_edge.us.i66:                               ; preds = %47
  store double %53, ptr %46, align 8, !tbaa !18
  %indvars.iv.next41.i67 = add nuw nsw i64 %indvars.iv40.i61, 1
  %exitcond44.not.i68 = icmp eq i64 %indvars.iv.next41.i67, %16
  br i1 %exitcond44.not.i68, label %54, label %.preheader.us.i60

arkode_butcher_mv.exit70:                         ; preds = %41
  tail call void @free(ptr noundef nonnull %9) #17
  tail call void @free(ptr noundef nonnull %10) #17
  tail call void @free(ptr noundef %11) #17
  br label %arkode_butcher_dot.exit

54:                                               ; preds = %._crit_edge.us.i66
  %55 = icmp eq ptr %11, null
  br i1 %55, label %arkode_butcher_vv.exit, label %.preheader.i

.preheader.i:                                     ; preds = %54, %.preheader.i
  %indvars.iv.i74 = phi i64 [ %indvars.iv.next.i75, %.preheader.i ], [ 0, %54 ]
  %56 = getelementptr inbounds nuw double, ptr %9, i64 %indvars.iv.i74
  %57 = load double, ptr %56, align 8, !tbaa !18
  %58 = getelementptr inbounds nuw double, ptr %10, i64 %indvars.iv.i74
  %59 = load double, ptr %58, align 8, !tbaa !18
  %60 = fmul double %57, %59
  %61 = getelementptr inbounds nuw double, ptr %11, i64 %indvars.iv.i74
  store double %60, ptr %61, align 8, !tbaa !18
  %indvars.iv.next.i75 = add nuw nsw i64 %indvars.iv.i74, 1
  %exitcond.not.i76 = icmp eq i64 %indvars.iv.next.i75, %16
  br i1 %exitcond.not.i76, label %62, label %.preheader.i

arkode_butcher_vv.exit:                           ; preds = %54
  tail call void @free(ptr noundef nonnull %9) #17
  tail call void @free(ptr noundef %10) #17
  br label %arkode_butcher_dot.exit

62:                                               ; preds = %.preheader.i
  %63 = icmp eq ptr %0, null
  br i1 %63, label %arkode_butcher_dot.exit, label %.preheader

.preheader:                                       ; preds = %62, %.preheader
  %indvars.iv.i80 = phi i64 [ %indvars.iv.next.i81, %.preheader ], [ 0, %62 ]
  %64 = phi double [ %69, %.preheader ], [ 0.000000e+00, %62 ]
  %65 = getelementptr inbounds nuw double, ptr %0, i64 %indvars.iv.i80
  %66 = load double, ptr %65, align 8, !tbaa !18
  %67 = getelementptr inbounds nuw double, ptr %11, i64 %indvars.iv.i80
  %68 = load double, ptr %67, align 8, !tbaa !18
  %69 = tail call double @llvm.fmuladd.f64(double %66, double %68, double %64)
  %indvars.iv.next.i81 = add nuw nsw i64 %indvars.iv.i80, 1
  %exitcond.not.i82 = icmp eq i64 %indvars.iv.next.i81, %16
  br i1 %exitcond.not.i82, label %70, label %.preheader

70:                                               ; preds = %.preheader
  tail call void @free(ptr noundef %9) #17
  tail call void @free(ptr noundef %10) #17
  tail call void @free(ptr noundef nonnull %11) #17
  %71 = fadd double %69, 0xBF8C71C71C71C71C
  %72 = tail call double @llvm.fabs.f64(double %71)
  %73 = fcmp ule double %72, 0x3E50000000000000
  %74 = zext i1 %73 to i32
  br label %arkode_butcher_dot.exit

arkode_butcher_dot.exit:                          ; preds = %62, %70, %arkode_butcher_vv.exit, %arkode_butcher_mv.exit70, %arkode_butcher_mv.exit55, %arkode_butcher_mv.exit
  %.0 = phi i32 [ 0, %arkode_butcher_mv.exit ], [ 0, %arkode_butcher_mv.exit55 ], [ 0, %arkode_butcher_mv.exit70 ], [ 0, %arkode_butcher_vv.exit ], [ %74, %70 ], [ 0, %62 ]
  ret i32 %.0
}